target datalayout = "e-m:e-p270:32:32-p271:32:32-p272:64:64-i64:64-i128:128-f80:128-n8:16:32:64-S128"
target triple = "x86_64-pc-linux-gnu"

%class.LogTagSet = type { ptr, i64, [5 x i32], [4 x i8], %class.LogOutputList, %class.LogDecorators, ptr }
%class.LogOutputList = type <{ [6 x ptr], i32, [4 x i8] }>
%class.LogDecorators = type { i32 }
%class.FileMapInfo = type { i8, i8, i8, i32, i64, ptr, ptr, ptr }
%struct.CDSFileMapHeaderBase = type { %struct.GenericCDSFileMapHeader, [4 x %struct.CDSFileMapRegion] }
%struct.GenericCDSFileMapHeader = type { i32, i32, i32, i32, i32, i32 }
%struct.CDSFileMapRegion = type { i32, i32, i32, i32, i32, i32, i64, i64, i64, i64, i64, i64, i64, ptr }
%class.BitMapView = type { %class.BitMap }
%class.BitMap = type { ptr, i64 }

@_ZN11FileMapInfo13_current_infoE = hidden global ptr null, align 8
@_ZN11FileMapInfo21_dynamic_archive_infoE = hidden global ptr null, align 8
@.str.114 = private unnamed_addr constant [49 x i8] c"mapped %s relocation %smap @ 0x%016lx (%lu bits)\00", align 1
@.str.115 = private unnamed_addr constant [4 x i8] c"oop\00", align 1
@.str.116 = private unnamed_addr constant [4 x i8] c"ptr\00", align 1
@_ZN16LogTagSetMappingILN6LogTag4typeE14ELS1_129ELS1_0ELS1_0ELS1_0ELS1_0EE7_tagsetE = linkonce_odr hidden global %class.LogTagSet zeroinitializer, comdat, align 8
@_ZZL11region_nameiE5names = internal global [4 x ptr] [ptr @.str.215, ptr @.str.216, ptr @.str.217, ptr @.str.218], align 16

; Function Attrs: mustprogress nounwind uwtable
define linkonce_odr hidden void @_ZN6BitMap11verify_sizeEm(i64 noundef %0) #1 comdat align 2 {
  %2 = alloca i64, align 8
  store i64 %0, ptr %2, align 8
  ret void
}

; Function Attrs: mustprogress nounwind uwtable
define linkonce_odr hidden noundef zeroext i1 @_ZNK13LogOutputList8is_levelEN8LogLevel4typeE(ptr noundef nonnull align 8 dereferenceable(52) %0, i32 noundef %1) #1 comdat align 2 {
  %3 = alloca ptr, align 8
  %4 = alloca i32, align 4
  store ptr %0, ptr %3, align 8
  store i32 %1, ptr %4, align 4
  %5 = load ptr, ptr %3, align 8
  %6 = getelementptr inbounds %class.LogOutputList, ptr %5, i32 0, i32 0
  %7 = load i32, ptr %4, align 4
  %8 = zext i32 %7 to i64
  %9 = getelementptr inbounds [6 x ptr], ptr %6, i64 0, i64 %8
  %10 = load volatile ptr, ptr %9, align 8
  %11 = icmp ne ptr %10, null
  ret i1 %11
}

; Function Attrs: mustprogress nounwind uwtable
define linkonce_odr hidden noundef ptr @_ZN13FileMapRegion4castEP16CDSFileMapRegion(ptr noundef %0) #1 comdat align 2 {
  %2 = alloca ptr, align 8
  store ptr %0, ptr %2, align 8
  %3 = load ptr, ptr %2, align 8
  ret ptr %3
}

; Function Attrs: mustprogress nounwind uwtable
define linkonce_odr hidden void @_ZN6BitMapC2EPmm(ptr noundef nonnull align 8 dereferenceable(16) %0, ptr noundef %1, i64 noundef %2) unnamed_addr #1 comdat align 2 {
  %4 = alloca ptr, align 8
  %5 = alloca ptr, align 8
  %6 = alloca i64, align 8
  store ptr %0, ptr %4, align 8
  store ptr %1, ptr %5, align 8
  store i64 %2, ptr %6, align 8
  %7 = load ptr, ptr %4, align 8
  %8 = getelementptr inbounds %class.BitMap, ptr %7, i32 0, i32 0
  %9 = load ptr, ptr %5, align 8
  store ptr %9, ptr %8, align 8
  %10 = getelementptr inbounds %class.BitMap, ptr %7, i32 0, i32 1
  %11 = load i64, ptr %6, align 8
  store i64 %11, ptr %10, align 8
  %12 = load i64, ptr %6, align 8
  call void @_ZN6BitMap11verify_sizeEm(i64 noundef %12)
  ret void
}

; Function Attrs: mustprogress nounwind uwtable
define linkonce_odr hidden noundef zeroext i1 @_ZNK9LogTagSet8is_levelEN8LogLevel4typeE(ptr noundef nonnull align 8 dereferenceable(112) %0, i32 noundef %1) #1 comdat align 2 {
  %3 = alloca ptr, align 8
  %4 = alloca i32, align 4
  store ptr %0, ptr %3, align 8
  store i32 %1, ptr %4, align 4
  %5 = load ptr, ptr %3, align 8
  %6 = getelementptr inbounds %class.LogTagSet, ptr %5, i32 0, i32 4
  %7 = load i32, ptr %4, align 4
  %8 = call noundef zeroext i1 @_ZNK13LogOutputList8is_levelEN8LogLevel4typeE(ptr noundef nonnull align 8 dereferenceable(52) %6, i32 noundef %7)
  ret i1 %8
}

; Function Attrs: mustprogress nounwind uwtable
define linkonce_odr hidden noundef nonnull align 8 dereferenceable(112) ptr @_ZN16LogTagSetMappingILN6LogTag4typeE14ELS1_129ELS1_0ELS1_0ELS1_0ELS1_0EE6tagsetEv() #1 comdat align 2 {
  ret ptr @_ZN16LogTagSetMappingILN6LogTag4typeE14ELS1_129ELS1_0ELS1_0ELS1_0ELS1_0EE7_tagsetE
}

; Function Attrs: mustprogress nounwind uwtable
define linkonce_odr hidden void @_ZNK13FileMapRegion21assert_is_heap_regionEv(ptr noundef nonnull align 8 dereferenceable(88) %0) #1 comdat align 2 {
  %2 = alloca ptr, align 8
  store ptr %0, ptr %2, align 8
  ret void
}

; Function Attrs: mustprogress nounwind uwtable
define linkonce_odr hidden noundef ptr @_ZN13FileMapHeader9region_atEi(ptr noundef nonnull align 8 dereferenceable(792) %0, i32 noundef %1) #1 comdat align 2 {
  %3 = alloca ptr, align 8
  %4 = alloca i32, align 4
  store ptr %0, ptr %3, align 8
  store i32 %1, ptr %4, align 4
  %5 = load ptr, ptr %3, align 8
  %6 = getelementptr inbounds %struct.CDSFileMapHeaderBase, ptr %5, i32 0, i32 1
  %7 = load i32, ptr %4, align 4
  %8 = sext i32 %7 to i64
  %9 = getelementptr inbounds [4 x %struct.CDSFileMapRegion], ptr %6, i64 0, i64 %8
  %10 = call noundef ptr @_ZN13FileMapRegion4castEP16CDSFileMapRegion(ptr noundef %9)
  ret ptr %10
}

; Function Attrs: mustprogress nounwind uwtable
define linkonce_odr hidden noundef ptr @_ZNK11FileMapInfo6headerEv(ptr noundef nonnull align 8 dereferenceable(40) %0) #1 comdat align 2 {
  %2 = alloca ptr, align 8
  store ptr %0, ptr %2, align 8
  %3 = load ptr, ptr %2, align 8
  %4 = getelementptr inbounds %class.FileMapInfo, ptr %3, i32 0, i32 7
  %5 = load ptr, ptr %4, align 8
  ret ptr %5
}

; Function Attrs: mustprogress nounwind uwtable
define linkonce_odr hidden void @_ZN10BitMapViewC2EPmm(ptr noundef nonnull align 8 dereferenceable(16) %0, ptr noundef %1, i64 noundef %2) unnamed_addr #1 comdat align 2 {
  %4 = alloca ptr, align 8
  %5 = alloca ptr, align 8
  %6 = alloca i64, align 8
  store ptr %0, ptr %4, align 8
  store ptr %1, ptr %5, align 8
  store i64 %2, ptr %6, align 8
  %7 = load ptr, ptr %4, align 8
  %8 = load ptr, ptr %5, align 8
  %9 = load i64, ptr %6, align 8
  call void @_ZN6BitMapC2EPmm(ptr noundef nonnull align 8 dereferenceable(16) %7, ptr noundef %8, i64 noundef %9)
  ret void
}

; Function Attrs: mustprogress nounwind uwtable
define linkonce_odr hidden noundef i64 @_Z3p2iPVKv(ptr noundef %0) #1 comdat {
  %2 = alloca ptr, align 8
  store ptr %0, ptr %2, align 8
  %3 = load ptr, ptr %2, align 8
  %4 = ptrtoint ptr %3 to i64
  ret i64 %4
}

; Function Attrs: mustprogress nounwind uwtable
define internal noundef ptr @_ZL11region_namei(i32 noundef %0) #1 {
  %2 = alloca i32, align 4
  %3 = alloca i32, align 4
  store i32 %0, ptr %2, align 4
  store i32 4, ptr %3, align 4
  %4 = load i32, ptr %2, align 4
  %5 = sext i32 %4 to i64
  %6 = getelementptr inbounds [4 x ptr], ptr @_ZZL11region_nameiE5names, i64 0, i64 %5
  %7 = load ptr, ptr %6, align 8
  ret ptr %7
}

; Function Attrs: mustprogress nounwind uwtable
define linkonce_odr hidden noundef zeroext i1 @_ZN7LogImplILN6LogTag4typeE14ELS1_129ELS1_0ELS1_0ELS1_0ELS1_0EE8is_levelEN8LogLevel4typeE(i32 noundef %0) #1 comdat align 2 {
  %2 = alloca i32, align 4
  store i32 %0, ptr %2, align 4
  %3 = call noundef nonnull align 8 dereferenceable(112) ptr @_ZN16LogTagSetMappingILN6LogTag4typeE14ELS1_129ELS1_0ELS1_0ELS1_0ELS1_0EE6tagsetEv()
  %4 = load i32, ptr %2, align 4
  %5 = call noundef zeroext i1 @_ZNK9LogTagSet8is_levelEN8LogLevel4typeE(ptr noundef nonnull align 8 dereferenceable(112) %3, i32 noundef %4)
  ret i1 %5
}

; Function Attrs: mustprogress nounwind uwtable
define linkonce_odr hidden noundef i64 @_ZNK13FileMapRegion19ptrmap_size_in_bitsEv(ptr noundef nonnull align 8 dereferenceable(88) %0) #1 comdat align 2 {
  %2 = alloca ptr, align 8
  store ptr %0, ptr %2, align 8
  %3 = load ptr, ptr %2, align 8
  %4 = getelementptr inbounds %struct.CDSFileMapRegion, ptr %3, i32 0, i32 12
  %5 = load i64, ptr %4, align 8
  ret i64 %5
}

; Function Attrs: mustprogress nounwind uwtable
define linkonce_odr hidden noundef i64 @_ZNK13FileMapRegion19oopmap_size_in_bitsEv(ptr noundef nonnull align 8 dereferenceable(88) %0) #1 comdat align 2 {
  %2 = alloca ptr, align 8
  store ptr %0, ptr %2, align 8
  %3 = load ptr, ptr %2, align 8
  call void @_ZNK13FileMapRegion21assert_is_heap_regionEv(ptr noundef nonnull align 8 dereferenceable(88) %3)
  %4 = getelementptr inbounds %struct.CDSFileMapRegion, ptr %3, i32 0, i32 10
  %5 = load i64, ptr %4, align 8
  ret i64 %5
}

; Function Attrs: mustprogress nounwind uwtable
define linkonce_odr hidden noundef i64 @_ZNK13FileMapRegion13ptrmap_offsetEv(ptr noundef nonnull align 8 dereferenceable(88) %0) #1 comdat align 2 {
  %2 = alloca ptr, align 8
  store ptr %0, ptr %2, align 8
  %3 = load ptr, ptr %2, align 8
  %4 = getelementptr inbounds %struct.CDSFileMapRegion, ptr %3, i32 0, i32 11
  %5 = load i64, ptr %4, align 8
  ret i64 %5
}

; Function Attrs: mustprogress nounwind uwtable
define linkonce_odr hidden noundef i64 @_ZNK13FileMapRegion13oopmap_offsetEv(ptr noundef nonnull align 8 dereferenceable(88) %0) #1 comdat align 2 {
  %2 = alloca ptr, align 8
  store ptr %0, ptr %2, align 8
  %3 = load ptr, ptr %2, align 8
  call void @_ZNK13FileMapRegion21assert_is_heap_regionEv(ptr noundef nonnull align 8 dereferenceable(88) %3)
  %4 = getelementptr inbounds %struct.CDSFileMapRegion, ptr %3, i32 0, i32 9
  %5 = load i64, ptr %4, align 8
  ret i64 %5
}

; Function Attrs: mustprogress nounwind uwtable
define linkonce_odr hidden noundef ptr @_ZN11FileMapInfo12dynamic_infoEv() #1 comdat align 2 {
  %1 = load ptr, ptr @_ZN11FileMapInfo21_dynamic_archive_infoE, align 8
  ret ptr %1
}

; Function Attrs: mustprogress nounwind uwtable
define linkonce_odr hidden noundef ptr @_ZN11FileMapInfo12current_infoEv() #1 comdat align 2 {
  %1 = load ptr, ptr @_ZN11FileMapInfo13_current_infoE, align 8
  ret ptr %1
}

; Function Attrs: mustprogress nounwind uwtable
define linkonce_odr hidden noundef zeroext i1 @_ZNK11FileMapInfo9is_staticEv(ptr noundef nonnull align 8 dereferenceable(40) %0) #1 comdat align 2 {
  %2 = alloca ptr, align 8
  store ptr %0, ptr %2, align 8
  %3 = load ptr, ptr %2, align 8
  %4 = getelementptr inbounds %class.FileMapInfo, ptr %3, i32 0, i32 0
  %5 = load i8, ptr %4, align 8
  %6 = trunc i8 %5 to i1
  ret i1 %6
}

; Function Attrs: mustprogress nounwind uwtable
define linkonce_odr hidden noundef ptr @_ZNK11FileMapInfo9region_atEi(ptr noundef nonnull align 8 dereferenceable(40) %0, i32 noundef %1) #1 comdat align 2 {
  %3 = alloca ptr, align 8
  %4 = alloca i32, align 4
  store ptr %0, ptr %3, align 8
  store i32 %1, ptr %4, align 4
  %5 = load ptr, ptr %3, align 8
  %6 = call noundef ptr @_ZNK11FileMapInfo6headerEv(ptr noundef nonnull align 8 dereferenceable(40) %5)
  %7 = load i32, ptr %4, align 4
  %8 = call noundef ptr @_ZN13FileMapHeader9region_atEi(ptr noundef nonnull align 8 dereferenceable(792) %6, i32 noundef %7)
  ret ptr %8
}

; Function Attrs: mustprogress nounwind uwtable
define hidden void @_ZN11FileMapInfo11bitmap_viewEib(ptr dead_on_unwind noalias writable sret(%class.BitMapView) align 8 %0, ptr noundef nonnull align 8 dereferenceable(40) %1, i32 noundef %2, i1 noundef zeroext %3) #1 align 2 {
  %5 = alloca ptr, align 8
  %6 = alloca ptr, align 8
  %7 = alloca i32, align 4
  %8 = alloca i8, align 1
  %9 = alloca ptr, align 8
  %10 = alloca ptr, align 8
  %11 = alloca i64, align 8
  store ptr %0, ptr %5, align 8
  store ptr %1, ptr %6, align 8
  store i32 %2, ptr %7, align 4
  %12 = zext i1 %3 to i8
  store i8 %12, ptr %8, align 1
  %13 = load ptr, ptr %6, align 8
  %14 = load i32, ptr %7, align 4
  %15 = call noundef ptr @_ZNK11FileMapInfo9region_atEi(ptr noundef nonnull align 8 dereferenceable(40) %13, i32 noundef %14)
  store ptr %15, ptr %9, align 8
  %16 = call noundef zeroext i1 @_ZNK11FileMapInfo9is_staticEv(ptr noundef nonnull align 8 dereferenceable(40) %13)
  br i1 %16, label %17, label %20

17:                                               ; preds = %4
  %18 = call noundef ptr @_ZN11FileMapInfo12current_infoEv()
  %19 = call noundef ptr @_ZN11FileMapInfo17map_bitmap_regionEv(ptr noundef nonnull align 8 dereferenceable(40) %18)
  br label %23

20:                                               ; preds = %4
  %21 = call noundef ptr @_ZN11FileMapInfo12dynamic_infoEv()
  %22 = call noundef ptr @_ZN11FileMapInfo17map_bitmap_regionEv(ptr noundef nonnull align 8 dereferenceable(40) %21)
  br label %23

23:                                               ; preds = %20, %17
  %24 = phi ptr [ %19, %17 ], [ %22, %20 ]
  store ptr %24, ptr %10, align 8
  %25 = load i8, ptr %8, align 1
  %26 = trunc i8 %25 to i1
  br i1 %26, label %27, label %30

27:                                               ; preds = %23
  %28 = load ptr, ptr %9, align 8
  %29 = call noundef i64 @_ZNK13FileMapRegion13oopmap_offsetEv(ptr noundef nonnull align 8 dereferenceable(88) %28)
  br label %33

30:                                               ; preds = %23
  %31 = load ptr, ptr %9, align 8
  %32 = call noundef i64 @_ZNK13FileMapRegion13ptrmap_offsetEv(ptr noundef nonnull align 8 dereferenceable(88) %31)
  br label %33

33:                                               ; preds = %30, %27
  %34 = phi i64 [ %29, %27 ], [ %32, %30 ]
  %35 = load ptr, ptr %10, align 8
  %36 = getelementptr inbounds i8, ptr %35, i64 %34
  store ptr %36, ptr %10, align 8
  %37 = load i8, ptr %8, align 1
  %38 = trunc i8 %37 to i1
  br i1 %38, label %39, label %42

39:                                               ; preds = %33
  %40 = load ptr, ptr %9, align 8
  %41 = call noundef i64 @_ZNK13FileMapRegion19oopmap_size_in_bitsEv(ptr noundef nonnull align 8 dereferenceable(88) %40)
  br label %45

42:                                               ; preds = %33
  %43 = load ptr, ptr %9, align 8
  %44 = call noundef i64 @_ZNK13FileMapRegion19ptrmap_size_in_bitsEv(ptr noundef nonnull align 8 dereferenceable(88) %43)
  br label %45

45:                                               ; preds = %42, %39
  %46 = phi i64 [ %41, %39 ], [ %44, %42 ]
  store i64 %46, ptr %11, align 8
  %47 = call noundef zeroext i1 @_ZN7LogImplILN6LogTag4typeE14ELS1_129ELS1_0ELS1_0ELS1_0ELS1_0EE8is_levelEN8LogLevel4typeE(i32 noundef 2)
  br i1 %47, label %49, label %48

48:                                               ; preds = %45
  br label %62

49:                                               ; preds = %45
  %50 = load i32, ptr %7, align 4
  %51 = call noundef ptr @_ZL11region_namei(i32 noundef %50)
  %52 = load i8, ptr %8, align 1
  %53 = trunc i8 %52 to i1
  br i1 %53, label %54, label %55

54:                                               ; preds = %49
  br label %56

55:                                               ; preds = %49
  br label %56

56:                                               ; preds = %55, %54
  %57 = phi ptr [ @.str.115, %54 ], [ @.str.116, %55 ]
  %58 = getelementptr inbounds [4 x i8], ptr %57, i64 0, i64 0
  %59 = load ptr, ptr %10, align 8
  %60 = call noundef i64 @_Z3p2iPVKv(ptr noundef %59)
  %61 = load i64, ptr %11, align 8
  call void (ptr, ...) @_ZN7LogImplILN6LogTag4typeE14ELS1_129ELS1_0ELS1_0ELS1_0ELS1_0EE5writeILN8LogLevel4typeE2EEEvPKcz(ptr noundef @.str.114, ptr noundef %51, ptr noundef %58, i64 noundef %60, i64 noundef %61)
  br label %62

62:                                               ; preds = %56, %48
  %63 = load ptr, ptr %10, align 8
  %64 = load i64, ptr %11, align 8
  call void @_ZN10BitMapViewC2EPmm(ptr noundef nonnull align 8 dereferenceable(16) %0, ptr noundef %63, i64 noundef %64)
  ret void
}