; Function Attrs: mustprogress nounwind uwtable
define hidden void @_ZN11FileMapInfo11bitmap_viewEib(ptr dead_on_unwind noalias nocapture writable writeonly sret(%class.BitMapView) align 8 %0, ptr nocapture noundef nonnull readonly align 8 dereferenceable(40) %1, i32 noundef %2, i1 noundef zeroext %3) local_unnamed_addr #0 align 2 {
  %5 = getelementptr inbounds i8, ptr %1, i64 32
  %6 = load ptr, ptr %5, align 8
  %7 = getelementptr inbounds i8, ptr %6, i64 24
  %8 = sext i32 %2 to i64
  %9 = getelementptr inbounds [4 x %struct.CDSFileMapRegion], ptr %7, i64 0, i64 %8
  %10 = load i8, ptr %1, align 8
  %11 = trunc i8 %10 to i1
  %_ZN11FileMapInfo13_current_infoE.val = load ptr, ptr @_ZN11FileMapInfo13_current_infoE, align 8
  %_ZN11FileMapInfo21_dynamic_archive_infoE.val = load ptr, ptr @_ZN11FileMapInfo21_dynamic_archive_infoE, align 8
  %12 = select i1 %11, ptr %_ZN11FileMapInfo13_current_infoE.val, ptr %_ZN11FileMapInfo21_dynamic_archive_infoE.val
  %13 = tail call noundef ptr @_ZN11FileMapInfo17map_bitmap_regionEv(ptr noundef nonnull align 8 dereferenceable(40) %12)
  %.pn.in.v = select i1 %3, i64 48, i64 64
  %.pn.in = getelementptr inbounds i8, ptr %9, i64 %.pn.in.v
  %.in.v = select i1 %3, i64 56, i64 72
  %.in = getelementptr inbounds i8, ptr %9, i64 %.in.v
  %14 = load i64, ptr %.in, align 8
  %.pn = load i64, ptr %.pn.in, align 8
  %15 = getelementptr inbounds i8, ptr %13, i64 %.pn
  %16 = load volatile ptr, ptr getelementptr inbounds (i8, ptr @_ZN16LogTagSetMappingILN6LogTag4typeE14ELS1_129ELS1_0ELS1_0ELS1_0ELS1_0EE7_tagsetE, i64 56), align 8
  %.not = icmp eq ptr %16, null
  br i1 %.not, label %21, label %17

17:                                               ; preds = %4
  %18 = getelementptr inbounds [4 x ptr], ptr @_ZZL11region_nameiE5names, i64 0, i64 %8
  %19 = load ptr, ptr %18, align 8
  %.str.115..str.116 = select i1 %3, ptr @.str.115, ptr @.str.116
  %20 = ptrtoint ptr %15 to i64
  tail call void (ptr, ...) @_ZN7LogImplILN6LogTag4typeE14ELS1_129ELS1_0ELS1_0ELS1_0ELS1_0EE5writeILN8LogLevel4typeE2EEEvPKcz(ptr noundef nonnull @.str.114, ptr noundef %19, ptr noundef nonnull %.str.115..str.116, i64 noundef %20, i64 noundef %14)
  br label %21

21:                                               ; preds = %4, %17
  store ptr %15, ptr %0, align 8
  %22 = getelementptr inbounds i8, ptr %0, i64 8
  store i64 %14, ptr %22, align 8
  ret void
}